; Function Attrs: nounwind uwtable
define internal range(i32 0, 23) i32 @experimental_hooks_prof_sample_ctl(ptr readnone captures(none) %0, ptr readnone captures(none) %1, i64 %2, ptr noundef writeonly captures(address_is_null) %3, ptr noundef captures(address_is_null) %4, ptr noundef readonly captures(address_is_null) %5, i64 noundef %6) #0 {
  %8 = alloca ptr, align 8
  %9 = icmp eq ptr %3, null
  %10 = icmp eq ptr %5, null
  %or.cond = and i1 %9, %10
  br i1 %or.cond, label %24, label %11

11:                                               ; preds = %7
  br i1 %9, label %18, label %12

12:                                               ; preds = %11
  call void @llvm.lifetime.start.p0(i64 8, ptr nonnull %8)
  %13 = tail call ptr @je_prof_sample_hook_get() #15
  store ptr %13, ptr %8, align 8, !tbaa !230
  %.not33 = icmp eq ptr %4, null
  br i1 %.not33, label %.thread, label %14

14:                                               ; preds = %12
  %15 = load i64, ptr %4, align 8, !tbaa !4
  %.not34 = icmp eq i64 %15, 8
  br i1 %.not34, label %16, label %17

16:                                               ; preds = %14
  store ptr %13, ptr %3, align 8, !tbaa !230
  br label %.thread

.thread:                                          ; preds = %16, %12
  call void @llvm.lifetime.end.p0(i64 8, ptr nonnull %8)
  br label %18

17:                                               ; preds = %14
  %spec.select = tail call i64 @llvm.umin.i64(i64 %15, i64 8)
  call void @llvm.memcpy.p0.p0.i64(ptr nonnull align 1 %3, ptr nonnull align 8 %8, i64 %spec.select, i1 false)
  store i64 %spec.select, ptr %4, align 8, !tbaa !4
  call void @llvm.lifetime.end.p0(i64 8, ptr nonnull %8)
  br label %24

18:                                               ; preds = %.thread, %11
  br i1 %10, label %24, label %19

19:                                               ; preds = %18
  %20 = load i8, ptr @je_opt_prof, align 1, !tbaa !146, !range !48, !noundef !49
  %21 = trunc nuw i8 %20 to i1
  br i1 %21, label %22, label %24

22:                                               ; preds = %19
  %.not36 = icmp eq i64 %6, 8
  br i1 %.not36, label %.thread43, label %24

.thread43:                                        ; preds = %22
  %23 = load ptr, ptr %5, align 8, !tbaa !230
  tail call void @je_prof_sample_hook_set(ptr noundef %23) #15
  br label %24

24:                                               ; preds = %18, %.thread43, %22, %17, %7, %19
  %.027 = phi i32 [ 22, %17 ], [ 22, %7 ], [ 2, %19 ], [ 22, %22 ], [ 0, %.thread43 ], [ 0, %18 ]
  ret i32 %.027
}